target datalayout = "e-m:e-p270:32:32-p271:32:32-p272:64:64-i64:64-i128:128-f80:128-n8:16:32:64-S128"
target triple = "x86_64-pc-linux-gnu"

@bio_stdout = internal global ptr null, align 8
@sn_expect = internal global i32 0, align 4
@s_ctx = internal global ptr null, align 8
@s_ctx2 = internal global ptr null, align 8
@.str.255 = private unnamed_addr constant [33 x i8] c"Servername: expected context %d\0A\00", align 1
@.str.256 = private unnamed_addr constant [26 x i8] c"Servername: context is 2\0A\00", align 1
@.str.257 = private unnamed_addr constant [26 x i8] c"Servername: context is 1\0A\00", align 1
@.str.258 = private unnamed_addr constant [32 x i8] c"Servername: context is unknown\0A\00", align 1

; Function Attrs: nounwind uwtable
define internal i32 @verify_servername(ptr noundef %0, ptr noundef %1) #0 {
  %3 = alloca i32, align 4
  %4 = alloca ptr, align 8
  %5 = alloca ptr, align 8
  %6 = alloca ptr, align 8
  %7 = alloca i32, align 4
  store ptr %0, ptr %4, align 8, !tbaa !17
  store ptr %1, ptr %5, align 8, !tbaa !17
  call void @llvm.lifetime.start.p0(i64 8, ptr %6) #10
  %8 = load ptr, ptr %5, align 8, !tbaa !17
  %9 = call ptr @SSL_get_SSL_CTX(ptr noundef %8)
  store ptr %9, ptr %6, align 8, !tbaa !13
  %10 = load i32, ptr @sn_expect, align 4, !tbaa !4
  %11 = icmp eq i32 %10, 0
  br i1 %11, label %12, label %13

12:                                               ; preds = %2
  store i32 0, ptr %3, align 4
  store i32 1, ptr %7, align 4
  br label %51

13:                                               ; preds = %2
  %14 = load i32, ptr @sn_expect, align 4, !tbaa !4
  %15 = icmp eq i32 %14, 1
  br i1 %15, label %16, label %21

16:                                               ; preds = %13
  %17 = load ptr, ptr %6, align 8, !tbaa !13
  %18 = load ptr, ptr @s_ctx, align 8, !tbaa !13
  %19 = icmp eq ptr %17, %18
  br i1 %19, label %20, label %21

20:                                               ; preds = %16
  store i32 0, ptr %3, align 4
  store i32 1, ptr %7, align 4
  br label %51

21:                                               ; preds = %16, %13
  %22 = load i32, ptr @sn_expect, align 4, !tbaa !4
  %23 = icmp eq i32 %22, 2
  br i1 %23, label %24, label %29

24:                                               ; preds = %21
  %25 = load ptr, ptr %6, align 8, !tbaa !13
  %26 = load ptr, ptr @s_ctx2, align 8, !tbaa !13
  %27 = icmp eq ptr %25, %26
  br i1 %27, label %28, label %29

28:                                               ; preds = %24
  store i32 0, ptr %3, align 4
  store i32 1, ptr %7, align 4
  br label %51

29:                                               ; preds = %24, %21
  %30 = load ptr, ptr @bio_stdout, align 8, !tbaa !35
  %31 = load i32, ptr @sn_expect, align 4, !tbaa !4
  %32 = call i32 (ptr, ptr, ...) @BIO_printf(ptr noundef %30, ptr noundef @.str.255, i32 noundef %31)
  %33 = load ptr, ptr %6, align 8, !tbaa !13
  %34 = load ptr, ptr @s_ctx2, align 8, !tbaa !13
  %35 = icmp eq ptr %33, %34
  br i1 %35, label %36, label %39

36:                                               ; preds = %29
  %37 = load ptr, ptr @bio_stdout, align 8, !tbaa !35
  %38 = call i32 (ptr, ptr, ...) @BIO_printf(ptr noundef %37, ptr noundef @.str.256)
  br label %50

39:                                               ; preds = %29
  %40 = load ptr, ptr %6, align 8, !tbaa !13
  %41 = load ptr, ptr @s_ctx, align 8, !tbaa !13
  %42 = icmp eq ptr %40, %41
  br i1 %42, label %43, label %46

43:                                               ; preds = %39
  %44 = load ptr, ptr @bio_stdout, align 8, !tbaa !35
  %45 = call i32 (ptr, ptr, ...) @BIO_printf(ptr noundef %44, ptr noundef @.str.257)
  br label %49

46:                                               ; preds = %39
  %47 = load ptr, ptr @bio_stdout, align 8, !tbaa !35
  %48 = call i32 (ptr, ptr, ...) @BIO_printf(ptr noundef %47, ptr noundef @.str.258)
  br label %49

49:                                               ; preds = %46, %43
  br label %50

50:                                               ; preds = %49, %36
  store i32 -1, ptr %3, align 4
  store i32 1, ptr %7, align 4
  br label %51

51:                                               ; preds = %50, %28, %20, %12
  call void @llvm.lifetime.end.p0(i64 8, ptr %6) #10
  %52 = load i32, ptr %3, align 4
  ret i32 %52
}