; Function Attrs: nounwind uwtable
define internal fastcc range(i32 -1, 1) i32 @verify_servername(ptr noundef %0) unnamed_addr #7 {
  %2 = tail call ptr @SSL_get_SSL_CTX(ptr noundef %0) #23
  %3 = load i32, ptr @sn_expect, align 4, !tbaa !4
  switch i32 %3, label %7 [
    i32 0, label %26
    i32 1, label %4
  ]

4:                                                ; preds = %1
  %5 = load ptr, ptr @s_ctx, align 8, !tbaa !29
  %6 = icmp eq ptr %2, %5
  br i1 %6, label %26, label %.thread

7:                                                ; preds = %1
  %8 = icmp eq i32 %3, 2
  %9 = load ptr, ptr @s_ctx2, align 8
  %10 = icmp eq ptr %2, %9
  %or.cond = select i1 %8, i1 %10, i1 false
  br i1 %or.cond, label %26, label %.thread

.thread:                                          ; preds = %4, %7
  %11 = load ptr, ptr @bio_stdout, align 8, !tbaa !19
  %12 = tail call i32 (ptr, ptr, ...) @BIO_printf(ptr noundef %11, ptr noundef nonnull @.str.255, i32 noundef %3) #23
  %13 = load ptr, ptr @s_ctx2, align 8, !tbaa !29
  %14 = icmp eq ptr %2, %13
  br i1 %14, label %15, label %18

15:                                               ; preds = %.thread
  %16 = load ptr, ptr @bio_stdout, align 8, !tbaa !19
  %17 = tail call i32 (ptr, ptr, ...) @BIO_printf(ptr noundef %16, ptr noundef nonnull @.str.256) #23
  br label %26

18:                                               ; preds = %.thread
  %19 = load ptr, ptr @s_ctx, align 8, !tbaa !29
  %20 = icmp eq ptr %2, %19
  %21 = load ptr, ptr @bio_stdout, align 8, !tbaa !19
  br i1 %20, label %22, label %24

22:                                               ; preds = %18
  %23 = tail call i32 (ptr, ptr, ...) @BIO_printf(ptr noundef %21, ptr noundef nonnull @.str.257) #23
  br label %26

24:                                               ; preds = %18
  %25 = tail call i32 (ptr, ptr, ...) @BIO_printf(ptr noundef %21, ptr noundef nonnull @.str.258) #23
  br label %26

26:                                               ; preds = %15, %24, %22, %7, %4, %1
  %.0 = phi i32 [ %3, %1 ], [ 0, %4 ], [ 0, %7 ], [ -1, %22 ], [ -1, %24 ], [ -1, %15 ]
  ret i32 %.0
}